; ModuleID = '57/1119.c'
source_filename = "57/1119.c"
target datalayout = "e-m:e-p270:32:32-p271:32:32-p272:64:64-i64:64-f80:128-n8:16:32:64-S128"
target triple = "x86_64-pc-linux-gnu"

@.str = private unnamed_addr constant [3 x i8] c"%d\00", align 1
@.str.1 = private unnamed_addr constant [3 x i8] c"%s\00", align 1
@.str.2 = private unnamed_addr constant [3 x i8] c"%c\00", align 1
@.str.3 = private unnamed_addr constant [2 x i8] c"\0A\00", align 1

; Function Attrs: noinline nounwind uwtable
define dso_local i32 @main() #0 {
  %1 = alloca i32, align 4
  %2 = alloca i32, align 4
  %3 = alloca i32, align 4
  %4 = alloca i32, align 4
  %5 = alloca [55 x [32 x i8]], align 16
  %6 = alloca i32, align 4
  %7 = alloca i32, align 4
  store i32 0, i32* %1, align 4
  %8 = call i32 (i8*, ...) @__isoc99_scanf(i8* getelementptr inbounds ([3 x i8], [3 x i8]* @.str, i64 0, i64 0), i32* %2)
  store i32 0, i32* %3, align 4
  br label %9

9:                                                ; preds = %19, %0
  %10 = load i32, i32* %3, align 4
  %11 = load i32, i32* %2, align 4
  %12 = icmp slt i32 %10, %11
  br i1 %12, label %13, label %22

13:                                               ; preds = %9
  %14 = load i32, i32* %3, align 4
  %15 = sext i32 %14 to i64
  %16 = getelementptr inbounds [55 x [32 x i8]], [55 x [32 x i8]]* %5, i64 0, i64 %15
  %17 = getelementptr inbounds [32 x i8], [32 x i8]* %16, i64 0, i64 0
  %18 = call i32 (i8*, ...) @__isoc99_scanf(i8* getelementptr inbounds ([3 x i8], [3 x i8]* @.str.1, i64 0, i64 0), i8* %17)
  br label %19

19:                                               ; preds = %13
  %20 = load i32, i32* %3, align 4
  %21 = add nsw i32 %20, 1
  store i32 %21, i32* %3, align 4
  br label %9

22:                                               ; preds = %9
  store i32 0, i32* %3, align 4
  br label %23

23:                                               ; preds = %137, %22
  %24 = load i32, i32* %3, align 4
  %25 = load i32, i32* %2, align 4
  %26 = icmp slt i32 %24, %25
  br i1 %26, label %27, label %140

27:                                               ; preds = %23
  %28 = load i32, i32* %3, align 4
  %29 = sext i32 %28 to i64
  %30 = getelementptr inbounds [55 x [32 x i8]], [55 x [32 x i8]]* %5, i64 0, i64 %29
  %31 = getelementptr inbounds [32 x i8], [32 x i8]* %30, i64 0, i64 0
  %32 = call i64 @strlen(i8* %31) #3
  %33 = trunc i64 %32 to i32
  store i32 %33, i32* %6, align 4
  store i32 0, i32* %7, align 4
  %34 = load i32, i32* %3, align 4
  %35 = sext i32 %34 to i64
  %36 = getelementptr inbounds [55 x [32 x i8]], [55 x [32 x i8]]* %5, i64 0, i64 %35
  %37 = load i32, i32* %6, align 4
  %38 = sub nsw i32 %37, 3
  %39 = sext i32 %38 to i64
  %40 = getelementptr inbounds [32 x i8], [32 x i8]* %36, i64 0, i64 %39
  %41 = load i8, i8* %40, align 1
  %42 = sext i8 %41 to i32
  %43 = icmp eq i32 %42, 105
  br i1 %43, label %44, label %69

44:                                               ; preds = %27
  %45 = load i32, i32* %3, align 4
  %46 = sext i32 %45 to i64
  %47 = getelementptr inbounds [55 x [32 x i8]], [55 x [32 x i8]]* %5, i64 0, i64 %46
  %48 = load i32, i32* %6, align 4
  %49 = sub nsw i32 %48, 2
  %50 = sext i32 %49 to i64
  %51 = getelementptr inbounds [32 x i8], [32 x i8]* %47, i64 0, i64 %50
  %52 = load i8, i8* %51, align 1
  %53 = sext i8 %52 to i32
  %54 = icmp eq i32 %53, 110
  br i1 %54, label %55, label %69

55:                                               ; preds = %44
  %56 = load i32, i32* %3, align 4
  %57 = sext i32 %56 to i64
  %58 = getelementptr inbounds [55 x [32 x i8]], [55 x [32 x i8]]* %5, i64 0, i64 %57
  %59 = load i32, i32* %6, align 4
  %60 = sub nsw i32 %59, 1
  %61 = sext i32 %60 to i64
  %62 = getelementptr inbounds [32 x i8], [32 x i8]* %58, i64 0, i64 %61
  %63 = load i8, i8* %62, align 1
  %64 = sext i8 %63 to i32
  %65 = icmp eq i32 %64, 103
  br i1 %65, label %66, label %69

66:                                               ; preds = %55
  %67 = load i32, i32* %6, align 4
  %68 = sub nsw i32 %67, 3
  store i32 %68, i32* %7, align 4
  br label %117

69:                                               ; preds = %55, %44, %27
  %70 = load i32, i32* %3, align 4
  %71 = sext i32 %70 to i64
  %72 = getelementptr inbounds [55 x [32 x i8]], [55 x [32 x i8]]* %5, i64 0, i64 %71
  %73 = load i32, i32* %6, align 4
  %74 = sub nsw i32 %73, 2
  %75 = sext i32 %74 to i64
  %76 = getelementptr inbounds [32 x i8], [32 x i8]* %72, i64 0, i64 %75
  %77 = load i8, i8* %76, align 1
  %78 = sext i8 %77 to i32
  %79 = icmp eq i32 %78, 101
  br i1 %79, label %80, label %91

80:                                               ; preds = %69
  %81 = load i32, i32* %3, align 4
  %82 = sext i32 %81 to i64
  %83 = getelementptr inbounds [55 x [32 x i8]], [55 x [32 x i8]]* %5, i64 0, i64 %82
  %84 = load i32, i32* %6, align 4
  %85 = sub nsw i32 %84, 1
  %86 = sext i32 %85 to i64
  %87 = getelementptr inbounds [32 x i8], [32 x i8]* %83, i64 0, i64 %86
  %88 = load i8, i8* %87, align 1
  %89 = sext i8 %88 to i32
  %90 = icmp eq i32 %89, 114
  br i1 %90, label %113, label %91

91:                                               ; preds = %80, %69
  %92 = load i32, i32* %3, align 4
  %93 = sext i32 %92 to i64
  %94 = getelementptr inbounds [55 x [32 x i8]], [55 x [32 x i8]]* %5, i64 0, i64 %93
  %95 = load i32, i32* %6, align 4
  %96 = sub nsw i32 %95, 2
  %97 = sext i32 %96 to i64
  %98 = getelementptr inbounds [32 x i8], [32 x i8]* %94, i64 0, i64 %97
  %99 = load i8, i8* %98, align 1
  %100 = sext i8 %99 to i32
  %101 = icmp eq i32 %100, 108
  br i1 %101, label %102, label %116

102:                                              ; preds = %91
  %103 = load i32, i32* %3, align 4
  %104 = sext i32 %103 to i64
  %105 = getelementptr inbounds [55 x [32 x i8]], [55 x [32 x i8]]* %5, i64 0, i64 %104
  %106 = load i32, i32* %6, align 4
  %107 = sub nsw i32 %106, 1
  %108 = sext i32 %107 to i64
  %109 = getelementptr inbounds [32 x i8], [32 x i8]* %105, i64 0, i64 %108
  %110 = load i8, i8* %109, align 1
  %111 = sext i8 %110 to i32
  %112 = icmp eq i32 %111, 121
  br i1 %112, label %113, label %116

113:                                              ; preds = %102, %80
  %114 = load i32, i32* %6, align 4
  %115 = sub nsw i32 %114, 2
  store i32 %115, i32* %7, align 4
  br label %116

116:                                              ; preds = %113, %102, %91
  br label %117

117:                                              ; preds = %116, %66
  store i32 0, i32* %4, align 4
  br label %118

118:                                              ; preds = %132, %117
  %119 = load i32, i32* %4, align 4
  %120 = load i32, i32* %7, align 4
  %121 = icmp slt i32 %119, %120
  br i1 %121, label %122, label %135

122:                                              ; preds = %118
  %123 = load i32, i32* %3, align 4
  %124 = sext i32 %123 to i64
  %125 = getelementptr inbounds [55 x [32 x i8]], [55 x [32 x i8]]* %5, i64 0, i64 %124
  %126 = load i32, i32* %4, align 4
  %127 = sext i32 %126 to i64
  %128 = getelementptr inbounds [32 x i8], [32 x i8]* %125, i64 0, i64 %127
  %129 = load i8, i8* %128, align 1
  %130 = sext i8 %129 to i32
  %131 = call i32 (i8*, ...) @printf(i8* getelementptr inbounds ([3 x i8], [3 x i8]* @.str.2, i64 0, i64 0), i32 %130)
  br label %132

132:                                              ; preds = %122
  %133 = load i32, i32* %4, align 4
  %134 = add nsw i32 %133, 1
  store i32 %134, i32* %4, align 4
  br label %118

135:                                              ; preds = %118
  %136 = call i32 (i8*, ...) @printf(i8* getelementptr inbounds ([2 x i8], [2 x i8]* @.str.3, i64 0, i64 0))
  br label %137

137:                                              ; preds = %135
  %138 = load i32, i32* %3, align 4
  %139 = add nsw i32 %138, 1
  store i32 %139, i32* %3, align 4
  br label %23

140:                                              ; preds = %23
  %141 = load i32, i32* %1, align 4
  ret i32 %141
}

declare dso_local i32 @__isoc99_scanf(i8*, ...) #1

; Function Attrs: nounwind readonly
declare dso_local i64 @strlen(i8*) #2

declare dso_local i32 @printf(i8*, ...) #1


!llvm.module.flags = !{!0}
!llvm.ident = !{!1}

!0 = !{i32 1, !"wchar_size", i32 4}
!1 = !{!"clang version 10.0.0-4ubuntu1 "}
